target datalayout = "e-m:e-p270:32:32-p271:32:32-p272:64:64-i64:64-i128:128-f80:128-n8:16:32:64-S128"
target triple = "x86_64-pc-linux-gnu"

%"class.std::__cxx11::basic_string" = type { %"struct.std::__cxx11::basic_string<char>::_Alloc_hider", i64, %union.anon }
%"struct.std::__cxx11::basic_string<char>::_Alloc_hider" = type { ptr }
%union.anon = type { i64, [8 x i8] }
%"class.LightGBM::Dataset" = type { %"class.std::__cxx11::basic_string", %"class.std::vector", %"class.std::vector.3", i32, i32, i32, [4 x i8], %"class.LightGBM::Metadata", i32, %"class.std::vector.13", i32, %"class.std::vector.3", %"class.std::vector.3", %"class.std::vector.3", %"class.std::vector.23", %"class.std::vector.3", %"class.std::vector.3", i8, i32, %"class.std::vector.3", %"class.std::vector.28", i32, i32, i8, i8, %"class.std::vector.3", %"class.std::vector.33", i8, i32, i8, %"class.std::vector.3", i32, %"class.std::__cxx11::basic_string", i32, %"class.std::mutex", %"class.std::__cxx11::basic_string" }
%"class.std::vector" = type { %"struct.std::_Vector_base" }
%"struct.std::_Vector_base" = type { %"struct.std::_Vector_base<std::unique_ptr<LightGBM::FeatureGroup>, std::allocator<std::unique_ptr<LightGBM::FeatureGroup>>>::_Vector_impl" }
%"struct.std::_Vector_base<std::unique_ptr<LightGBM::FeatureGroup>, std::allocator<std::unique_ptr<LightGBM::FeatureGroup>>>::_Vector_impl" = type { %"struct.std::_Vector_base<std::unique_ptr<LightGBM::FeatureGroup>, std::allocator<std::unique_ptr<LightGBM::FeatureGroup>>>::_Vector_impl_data" }
%"struct.std::_Vector_base<std::unique_ptr<LightGBM::FeatureGroup>, std::allocator<std::unique_ptr<LightGBM::FeatureGroup>>>::_Vector_impl_data" = type { ptr, ptr, ptr }
%"class.LightGBM::Metadata" = type <{ %"class.std::__cxx11::basic_string", i32, i32, i32, [4 x i8], %"class.std::vector.8", %"class.std::vector.8", %"class.std::vector.3", %"class.std::vector.13", %"class.std::vector.3", %"class.std::vector.8", i32, [4 x i8], i64, %"class.std::vector.18", %"class.std::vector.3", %"class.std::mutex", i8, i8, i8, i8, [4 x i8] }>
%"class.std::vector.8" = type { %"struct.std::_Vector_base.9" }
%"struct.std::_Vector_base.9" = type { %"struct.std::_Vector_base<float, std::allocator<float>>::_Vector_impl" }
%"struct.std::_Vector_base<float, std::allocator<float>>::_Vector_impl" = type { %"struct.std::_Vector_base<float, std::allocator<float>>::_Vector_impl_data" }
%"struct.std::_Vector_base<float, std::allocator<float>>::_Vector_impl_data" = type { ptr, ptr, ptr }
%"class.std::vector.18" = type { %"struct.std::_Vector_base.19" }
%"struct.std::_Vector_base.19" = type { %"struct.std::_Vector_base<double, std::allocator<double>>::_Vector_impl" }
%"struct.std::_Vector_base<double, std::allocator<double>>::_Vector_impl" = type { %"struct.std::_Vector_base<double, std::allocator<double>>::_Vector_impl_data" }
%"struct.std::_Vector_base<double, std::allocator<double>>::_Vector_impl_data" = type { ptr, ptr, ptr }
%"class.std::vector.13" = type { %"struct.std::_Vector_base.14" }
%"struct.std::_Vector_base.14" = type { %"struct.std::_Vector_base<std::__cxx11::basic_string<char>, std::allocator<std::__cxx11::basic_string<char>>>::_Vector_impl" }
%"struct.std::_Vector_base<std::__cxx11::basic_string<char>, std::allocator<std::__cxx11::basic_string<char>>>::_Vector_impl" = type { %"struct.std::_Vector_base<std::__cxx11::basic_string<char>, std::allocator<std::__cxx11::basic_string<char>>>::_Vector_impl_data" }
%"struct.std::_Vector_base<std::__cxx11::basic_string<char>, std::allocator<std::__cxx11::basic_string<char>>>::_Vector_impl_data" = type { ptr, ptr, ptr }
%"class.std::vector.23" = type { %"struct.std::_Vector_base.24" }
%"struct.std::_Vector_base.24" = type { %"struct.std::_Vector_base<unsigned long, std::allocator<unsigned long>>::_Vector_impl" }
%"struct.std::_Vector_base<unsigned long, std::allocator<unsigned long>>::_Vector_impl" = type { %"struct.std::_Vector_base<unsigned long, std::allocator<unsigned long>>::_Vector_impl_data" }
%"struct.std::_Vector_base<unsigned long, std::allocator<unsigned long>>::_Vector_impl_data" = type { ptr, ptr, ptr }
%"class.std::vector.28" = type { %"struct.std::_Vector_base.29" }
%"struct.std::_Vector_base.29" = type { %"struct.std::_Vector_base<std::vector<double>, std::allocator<std::vector<double>>>::_Vector_impl" }
%"struct.std::_Vector_base<std::vector<double>, std::allocator<std::vector<double>>>::_Vector_impl" = type { %"struct.std::_Vector_base<std::vector<double>, std::allocator<std::vector<double>>>::_Vector_impl_data" }
%"struct.std::_Vector_base<std::vector<double>, std::allocator<std::vector<double>>>::_Vector_impl_data" = type { ptr, ptr, ptr }
%"class.std::vector.33" = type { %"struct.std::_Vector_base.34" }
%"struct.std::_Vector_base.34" = type { %"struct.std::_Vector_base<std::vector<float>, std::allocator<std::vector<float>>>::_Vector_impl" }
%"struct.std::_Vector_base<std::vector<float>, std::allocator<std::vector<float>>>::_Vector_impl" = type { %"struct.std::_Vector_base<std::vector<float>, std::allocator<std::vector<float>>>::_Vector_impl_data" }
%"struct.std::_Vector_base<std::vector<float>, std::allocator<std::vector<float>>>::_Vector_impl_data" = type { ptr, ptr, ptr }
%"class.std::vector.3" = type { %"struct.std::_Vector_base.4" }
%"struct.std::_Vector_base.4" = type { %"struct.std::_Vector_base<int, std::allocator<int>>::_Vector_impl" }
%"struct.std::_Vector_base<int, std::allocator<int>>::_Vector_impl" = type { %"struct.std::_Vector_base<int, std::allocator<int>>::_Vector_impl_data" }
%"struct.std::_Vector_base<int, std::allocator<int>>::_Vector_impl_data" = type { ptr, ptr, ptr }
%"class.std::mutex" = type { %"class.std::__mutex_base" }
%"class.std::__mutex_base" = type { %union.pthread_mutex_t }
%union.pthread_mutex_t = type { %struct.__pthread_mutex_s }
%struct.__pthread_mutex_s = type { i32, i32, i32, i32, i32, i16, i16, %struct.__pthread_internal_list }
%struct.__pthread_internal_list = type { ptr, ptr }

; Function Attrs: mustprogress nounwind uwtable
define linkonce_odr noundef i64 @_ZNKSt6vectorIdSaIdEE4sizeEv(ptr noundef nonnull align 8 dereferenceable(24) %0) #6 comdat align 2 {
  %2 = alloca ptr, align 8
  store ptr %0, ptr %2, align 8, !tbaa !513
  %3 = load ptr, ptr %2, align 8
  %4 = getelementptr inbounds nuw %"struct.std::_Vector_base.19", ptr %3, i32 0, i32 0
  %5 = getelementptr inbounds nuw %"struct.std::_Vector_base<double, std::allocator<double>>::_Vector_impl_data", ptr %4, i32 0, i32 1
  %6 = load ptr, ptr %5, align 8, !tbaa !516
  %7 = getelementptr inbounds nuw %"struct.std::_Vector_base.19", ptr %3, i32 0, i32 0
  %8 = getelementptr inbounds nuw %"struct.std::_Vector_base<double, std::allocator<double>>::_Vector_impl_data", ptr %7, i32 0, i32 0
  %9 = load ptr, ptr %8, align 8, !tbaa !515
  %10 = ptrtoint ptr %6 to i64
  %11 = ptrtoint ptr %9 to i64
  %12 = sub i64 %10, %11
  %13 = sdiv exact i64 %12, 8
  ret i64 %13
}

; Function Attrs: mustprogress nounwind uwtable
define linkonce_odr noundef nonnull align 8 dereferenceable(24) ptr @_ZNSt6vectorIS_IdSaIdEESaIS1_EEixEm(ptr noundef nonnull align 8 dereferenceable(24) %0, i64 noundef %1) #6 comdat align 2 {
  %3 = alloca ptr, align 8
  %4 = alloca i64, align 8
  store ptr %0, ptr %3, align 8, !tbaa !438
  store i64 %1, ptr %4, align 8, !tbaa !92
  %5 = load ptr, ptr %3, align 8
  %6 = getelementptr inbounds nuw %"struct.std::_Vector_base.29", ptr %5, i32 0, i32 0
  %7 = getelementptr inbounds nuw %"struct.std::_Vector_base<std::vector<double>, std::allocator<std::vector<double>>>::_Vector_impl_data", ptr %6, i32 0, i32 0
  %8 = load ptr, ptr %7, align 8, !tbaa !444
  %9 = load i64, ptr %4, align 8, !tbaa !92
  %10 = getelementptr inbounds nuw %"class.std::vector.18", ptr %8, i64 %9
  ret ptr %10
}

; Function Attrs: mustprogress nounwind uwtable
define available_externally noundef i64 @_ZNKSt7__cxx1112basic_stringIcSt11char_traitsIcESaIcEE4sizeEv(ptr noundef nonnull align 8 dereferenceable(32) %0) #6 align 2 {
  %2 = alloca ptr, align 8
  store ptr %0, ptr %2, align 8, !tbaa !95
  %3 = load ptr, ptr %2, align 8
  %4 = getelementptr inbounds nuw %"class.std::__cxx11::basic_string", ptr %3, i32 0, i32 1
  %5 = load i64, ptr %4, align 8, !tbaa !185
  ret i64 %5
}

; Function Attrs: mustprogress nounwind uwtable
define linkonce_odr noundef nonnull align 8 dereferenceable(32) ptr @_ZNSt6vectorINSt7__cxx1112basic_stringIcSt11char_traitsIcESaIcEEESaIS5_EEixEm(ptr noundef nonnull align 8 dereferenceable(24) %0, i64 noundef %1) #6 comdat align 2 {
  %3 = alloca ptr, align 8
  %4 = alloca i64, align 8
  store ptr %0, ptr %3, align 8, !tbaa !436
  store i64 %1, ptr %4, align 8, !tbaa !92
  %5 = load ptr, ptr %3, align 8
  %6 = getelementptr inbounds nuw %"struct.std::_Vector_base.14", ptr %5, i32 0, i32 0
  %7 = getelementptr inbounds nuw %"struct.std::_Vector_base<std::__cxx11::basic_string<char>, std::allocator<std::__cxx11::basic_string<char>>>::_Vector_impl_data", ptr %6, i32 0, i32 0
  %8 = load ptr, ptr %7, align 8, !tbaa !447
  %9 = load i64, ptr %4, align 8, !tbaa !92
  %10 = getelementptr inbounds nuw %"class.std::__cxx11::basic_string", ptr %8, i64 %9
  ret ptr %10
}

; Function Attrs: mustprogress nounwind uwtable
define linkonce_odr noundef i64 @_ZN8LightGBM12BinaryWriter11AlignedSizeEmm(i64 noundef %0, i64 noundef %1) #6 comdat align 2 {
  %3 = alloca i64, align 8
  %4 = alloca i64, align 8
  %5 = alloca i64, align 8
  store i64 %0, ptr %4, align 8, !tbaa !92
  store i64 %1, ptr %5, align 8, !tbaa !92
  %6 = load i64, ptr %4, align 8, !tbaa !92
  %7 = load i64, ptr %5, align 8, !tbaa !92
  %8 = urem i64 %6, %7
  %9 = icmp eq i64 %8, 0
  br i1 %9, label %10, label %12

10:                                               ; preds = %2
  %11 = load i64, ptr %4, align 8, !tbaa !92
  store i64 %11, ptr %3, align 8
  br label %20

12:                                               ; preds = %2
  %13 = load i64, ptr %4, align 8, !tbaa !92
  %14 = load i64, ptr %5, align 8, !tbaa !92
  %15 = udiv i64 %13, %14
  %16 = load i64, ptr %5, align 8, !tbaa !92
  %17 = mul i64 %15, %16
  %18 = load i64, ptr %5, align 8, !tbaa !92
  %19 = add i64 %17, %18
  store i64 %19, ptr %3, align 8
  br label %20

20:                                               ; preds = %12, %10
  %21 = load i64, ptr %3, align 8
  ret i64 %21
}

; Function Attrs: mustprogress nounwind uwtable
define noundef i64 @_ZN8LightGBM7Dataset23GetSerializedHeaderSizeEv(ptr noundef nonnull align 8 dereferenceable(864) %0) #6 align 2 {
  %2 = alloca ptr, align 8
  %3 = alloca i64, align 8
  %4 = alloca i32, align 4
  store ptr %0, ptr %2, align 8, !tbaa !4
  %5 = load ptr, ptr %2, align 8
  call void @llvm.lifetime.start.p0(i64 8, ptr %3) #3
  %6 = call noundef i64 @_ZN8LightGBM12BinaryWriter11AlignedSizeEmm(i64 noundef 4, i64 noundef 8)
  %7 = call noundef i64 @_ZN8LightGBM12BinaryWriter11AlignedSizeEmm(i64 noundef 4, i64 noundef 8)
  %8 = add i64 %6, %7
  %9 = call noundef i64 @_ZN8LightGBM12BinaryWriter11AlignedSizeEmm(i64 noundef 4, i64 noundef 8)
  %10 = add i64 %8, %9
  %11 = getelementptr inbounds nuw %"class.LightGBM::Dataset", ptr %5, i32 0, i32 4
  %12 = load i32, ptr %11, align 4, !tbaa !889
  %13 = sext i32 %12 to i64
  %14 = mul i64 4, %13
  %15 = call noundef i64 @_ZN8LightGBM12BinaryWriter11AlignedSizeEmm(i64 noundef %14, i64 noundef 8)
  %16 = add i64 %10, %15
  %17 = call noundef i64 @_ZN8LightGBM12BinaryWriter11AlignedSizeEmm(i64 noundef 4, i64 noundef 8)
  %18 = add i64 %16, %17
  %19 = call noundef i64 @_ZN8LightGBM12BinaryWriter11AlignedSizeEmm(i64 noundef 4, i64 noundef 8)
  %20 = add i64 %18, %19
  %21 = getelementptr inbounds nuw %"class.LightGBM::Dataset", ptr %5, i32 0, i32 3
  %22 = load i32, ptr %21, align 8, !tbaa !901
  %23 = sext i32 %22 to i64
  %24 = mul i64 4, %23
  %25 = call noundef i64 @_ZN8LightGBM12BinaryWriter11AlignedSizeEmm(i64 noundef %24, i64 noundef 8)
  %26 = mul i64 3, %25
  %27 = add i64 %20, %26
  %28 = getelementptr inbounds nuw %"class.LightGBM::Dataset", ptr %5, i32 0, i32 10
  %29 = load i32, ptr %28, align 8, !tbaa !19
  %30 = add nsw i32 %29, 1
  %31 = sext i32 %30 to i64
  %32 = mul i64 8, %31
  %33 = add i64 %27, %32
  %34 = getelementptr inbounds nuw %"class.LightGBM::Dataset", ptr %5, i32 0, i32 10
  %35 = load i32, ptr %34, align 8, !tbaa !19
  %36 = sext i32 %35 to i64
  %37 = mul i64 4, %36
  %38 = call noundef i64 @_ZN8LightGBM12BinaryWriter11AlignedSizeEmm(i64 noundef %37, i64 noundef 8)
  %39 = mul i64 2, %38
  %40 = add i64 %33, %39
  %41 = getelementptr inbounds nuw %"class.LightGBM::Dataset", ptr %5, i32 0, i32 4
  %42 = load i32, ptr %41, align 4, !tbaa !889
  %43 = sext i32 %42 to i64
  %44 = mul i64 4, %43
  %45 = call noundef i64 @_ZN8LightGBM12BinaryWriter11AlignedSizeEmm(i64 noundef %44, i64 noundef 8)
  %46 = add i64 %40, %45
  %47 = call noundef i64 @_ZN8LightGBM12BinaryWriter11AlignedSizeEmm(i64 noundef 4, i64 noundef 8)
  %48 = mul i64 %47, 3
  %49 = add i64 %46, %48
  %50 = call noundef i64 @_ZN8LightGBM12BinaryWriter11AlignedSizeEmm(i64 noundef 1, i64 noundef 8)
  %51 = mul i64 %50, 3
  %52 = add i64 %49, %51
  store i64 %52, ptr %3, align 8, !tbaa !92
  call void @llvm.lifetime.start.p0(i64 4, ptr %4) #3
  store i32 0, ptr %4, align 4, !tbaa !15
  br label %53

53:                                               ; preds = %79, %1
  %54 = load i32, ptr %4, align 4, !tbaa !15
  %55 = getelementptr inbounds nuw %"class.LightGBM::Dataset", ptr %5, i32 0, i32 4
  %56 = load i32, ptr %55, align 4, !tbaa !889
  %57 = icmp slt i32 %54, %56
  br i1 %57, label %59, label %58

58:                                               ; preds = %53
  call void @llvm.lifetime.end.p0(i64 4, ptr %4) #3
  br label %82

59:                                               ; preds = %53
  %60 = getelementptr inbounds nuw %"class.LightGBM::Dataset", ptr %5, i32 0, i32 9
  %61 = load i32, ptr %4, align 4, !tbaa !15
  %62 = sext i32 %61 to i64
  %63 = call noundef nonnull align 8 dereferenceable(32) ptr @_ZNSt6vectorINSt7__cxx1112basic_stringIcSt11char_traitsIcESaIcEEESaIS5_EEixEm(ptr noundef nonnull align 8 dereferenceable(24) %60, i64 noundef %62) #3
  %64 = call noundef i64 @_ZNKSt7__cxx1112basic_stringIcSt11char_traitsIcESaIcEE4sizeEv(ptr noundef nonnull align 8 dereferenceable(32) %63) #3
  %65 = call noundef i64 @_ZN8LightGBM12BinaryWriter11AlignedSizeEmm(i64 noundef %64, i64 noundef 8)
  %66 = call noundef i64 @_ZN8LightGBM12BinaryWriter11AlignedSizeEmm(i64 noundef 4, i64 noundef 8)
  %67 = add i64 %65, %66
  %68 = getelementptr inbounds nuw %"class.LightGBM::Dataset", ptr %5, i32 0, i32 20
  %69 = load i32, ptr %4, align 4, !tbaa !15
  %70 = sext i32 %69 to i64
  %71 = call noundef nonnull align 8 dereferenceable(24) ptr @_ZNSt6vectorIS_IdSaIdEESaIS1_EEixEm(ptr noundef nonnull align 8 dereferenceable(24) %68, i64 noundef %70) #3
  %72 = call noundef i64 @_ZNKSt6vectorIdSaIdEE4sizeEv(ptr noundef nonnull align 8 dereferenceable(24) %71) #3
  %73 = mul i64 %72, 8
  %74 = add i64 %67, %73
  %75 = call noundef i64 @_ZN8LightGBM12BinaryWriter11AlignedSizeEmm(i64 noundef 4, i64 noundef 8)
  %76 = add i64 %74, %75
  %77 = load i64, ptr %3, align 8, !tbaa !92
  %78 = add i64 %77, %76
  store i64 %78, ptr %3, align 8, !tbaa !92
  br label %79

79:                                               ; preds = %59
  %80 = load i32, ptr %4, align 4, !tbaa !15
  %81 = add nsw i32 %80, 1
  store i32 %81, ptr %4, align 4, !tbaa !15
  br label %53, !llvm.loop !1234

82:                                               ; preds = %58
  %83 = load i64, ptr %3, align 8, !tbaa !92
  call void @llvm.lifetime.end.p0(i64 8, ptr %3) #3
  ret i64 %83
}