; Function Attrs: mustprogress nofree norecurse nosync nounwind willreturn memory(read, inaccessiblemem: none) uwtable
define noundef i64 @_ZN8LightGBM7Dataset23GetSerializedHeaderSizeEv(ptr noundef nonnull readonly align 8 captures(none) dereferenceable(864) %0) local_unnamed_addr #23 align 2 {
  %2 = getelementptr inbounds nuw i8, ptr %0, i64 84
  %3 = load i32, ptr %2, align 4, !tbaa !429
  %4 = sext i32 %3 to i64
  %5 = shl nsw i64 %4, 2
  %6 = and i32 %3, 1
  %7 = icmp eq i32 %6, 0
  %8 = and i64 %5, 9223372036854775800
  %9 = add nuw i64 %8, 8
  %.0.i = select i1 %7, i64 %5, i64 %9
  %10 = getelementptr inbounds nuw i8, ptr %0, i64 80
  %11 = load i32, ptr %10, align 8, !tbaa !442
  %12 = sext i32 %11 to i64
  %13 = shl nsw i64 %12, 2
  %14 = and i32 %11, 1
  %15 = icmp eq i32 %14, 0
  %16 = and i64 %13, -8
  %17 = add nsw i64 %16, 8
  %.0.i7 = select i1 %15, i64 %13, i64 %17
  %18 = mul nsw i64 %.0.i7, 3
  %19 = getelementptr inbounds nuw i8, ptr %0, i64 432
  %20 = load i32, ptr %19, align 8, !tbaa !16
  %21 = add nsw i32 %20, 1
  %22 = sext i32 %21 to i64
  %23 = shl nsw i64 %22, 3
  %24 = sext i32 %20 to i64
  %25 = shl nsw i64 %24, 2
  %26 = and i32 %20, 1
  %27 = icmp eq i32 %26, 0
  %28 = and i64 %25, 9223372036854775800
  %29 = add nuw i64 %28, 8
  %.0.i8 = select i1 %27, i64 %25, i64 %29
  %reass.add = add i64 %.0.i8, %.0.i
  %reass.mul = shl i64 %reass.add, 1
  %30 = add nsw i64 %23, 88
  %31 = add nsw i64 %30, %18
  %32 = add i64 %31, %reass.mul
  %33 = icmp sgt i32 %3, 0
  br i1 %33, label %.lr.ph, label %._crit_edge

.lr.ph:                                           ; preds = %1
  %34 = getelementptr inbounds nuw i8, ptr %0, i64 408
  %35 = load ptr, ptr %34, align 8, !tbaa !266
  %36 = getelementptr inbounds nuw i8, ptr %0, i64 616
  %37 = load ptr, ptr %36, align 8, !tbaa !262
  %wide.trip.count = zext nneg i32 %3 to i64
  br label %38

._crit_edge:                                      ; preds = %38, %1
  %.06.lcssa = phi i64 [ %32, %1 ], [ %50, %38 ]
  ret i64 %.06.lcssa

38:                                               ; preds = %.lr.ph, %38
  %indvars.iv = phi i64 [ 0, %.lr.ph ], [ %indvars.iv.next, %38 ]
  %.0611 = phi i64 [ %32, %.lr.ph ], [ %50, %38 ]
  %39 = getelementptr inbounds nuw %"class.std::__cxx11::basic_string", ptr %35, i64 %indvars.iv, i32 1
  %40 = load i64, ptr %39, align 8, !tbaa !15
  %.biased = add i64 %40, 7
  %.0.i10 = and i64 %.biased, -8
  %41 = getelementptr inbounds nuw %"class.std::vector.18", ptr %37, i64 %indvars.iv
  %42 = getelementptr inbounds nuw i8, ptr %41, i64 8
  %43 = load ptr, ptr %42, align 8, !tbaa !502
  %44 = load ptr, ptr %41, align 8, !tbaa !264
  %45 = ptrtoint ptr %43 to i64
  %46 = ptrtoint ptr %44 to i64
  %47 = add i64 %.0611, 16
  %48 = add i64 %47, %.0.i10
  %49 = add i64 %48, %45
  %50 = sub i64 %49, %46
  %indvars.iv.next = add nuw nsw i64 %indvars.iv, 1
  %exitcond.not = icmp eq i64 %indvars.iv.next, %wide.trip.count
  br i1 %exitcond.not, label %._crit_edge, label %38, !llvm.loop !635
}